; Function Attrs: uwtable
define void @_ZThn16_N19QualityMapperPlugin22suggestedRenderingDataER9MeshModelR15MLRenderingData(ptr nocapture noundef readnone %0, ptr noundef nonnull align 8 dereferenceable(1288) %1, ptr noundef nonnull align 8 dereferenceable(40) %2) unnamed_addr #11 align 2 personality ptr @__gxx_personality_v0 {
  %4 = tail call noundef zeroext i1 @_ZNK9MeshModel11hasDataMaskEi(ptr noundef nonnull align 8 dereferenceable(1288) %1, i32 noundef 16)
  br i1 %4, label %_ZN3vcg20GLMeshAttributesInfo4nextENS0_18PRIMITIVE_MODALITYE.exit.i, label %_ZN19QualityMapperPlugin22suggestedRenderingDataER9MeshModelR15MLRenderingData.exit

_ZN3vcg20GLMeshAttributesInfo4nextENS0_18PRIMITIVE_MODALITYE.exit.i: ; preds = %3, %_ZN3vcg20GLMeshAttributesInfo4nextENS0_18PRIMITIVE_MODALITYE.exit.i
  %.05.i = phi i32 [ %6, %_ZN3vcg20GLMeshAttributesInfo4nextENS0_18PRIMITIVE_MODALITYE.exit.i ], [ 0, %3 ]
  %5 = tail call noundef zeroext i1 @_ZN15MLRenderingData3setEN3vcg20GLMeshAttributesInfo18PRIMITIVE_MODALITYENS1_9ATT_NAMESEb(ptr noundef nonnull align 8 dereferenceable(40) %2, i32 noundef %.05.i, i32 3, i1 noundef zeroext true)
  %6 = add nuw nsw i32 %.05.i, 1
  %exitcond.not.i = icmp eq i32 %6, 4
  br i1 %exitcond.not.i, label %7, label %_ZN3vcg20GLMeshAttributesInfo4nextENS0_18PRIMITIVE_MODALITYE.exit.i, !llvm.loop !10

7:                                                ; preds = %_ZN3vcg20GLMeshAttributesInfo4nextENS0_18PRIMITIVE_MODALITYE.exit.i
  tail call void @_ZN9MeshModel14updateDataMaskEi(ptr noundef nonnull align 8 dereferenceable(1288) %1, i32 noundef 8)
  br label %_ZN19QualityMapperPlugin22suggestedRenderingDataER9MeshModelR15MLRenderingData.exit

_ZN19QualityMapperPlugin22suggestedRenderingDataER9MeshModelR15MLRenderingData.exit: ; preds = %3, %7
  ret void
}